target datalayout = "e-m:e-p270:32:32-p271:32:32-p272:64:64-i64:64-i128:128-f80:128-n8:16:32:64-S128"
target triple = "x86_64-pc-linux-gnu"

%struct.pmix_mca_base_framework_t = type { ptr, ptr, ptr, ptr, ptr, ptr, i32, i32, ptr, ptr, i32, i32, %struct.pmix_list_t, %struct.pmix_list_t }
%struct.pmix_list_t = type { %struct.pmix_object_t, %struct.pmix_list_item_t, i64 }
%struct.pmix_object_t = type { %union.pthread_mutex_t, ptr, i32, %struct.pmix_tma }
%union.pthread_mutex_t = type { %struct.__pthread_mutex_s }
%struct.__pthread_mutex_s = type { i32, i32, i32, i32, i32, i16, i16, %struct.__pthread_internal_list }
%struct.__pthread_internal_list = type { ptr, ptr }
%struct.pmix_tma = type { ptr, ptr, ptr, ptr, ptr, ptr, ptr, ptr }
%struct.pmix_list_item_t = type { %struct.pmix_object_t, ptr, ptr, i32 }
%struct.pmix_output_desc_t = type { i8, i8, i32, i8, i32, ptr, ptr, i32, ptr, i32, i8, i8, i8, i8, ptr, i32, i32 }
%struct.pmix_bfrop_type_info_t = type { %struct.pmix_object_t, i16, ptr, ptr, ptr, ptr, ptr }
%struct.pmix_pointer_array_t = type { %struct.pmix_object_t, i32, i32, i32, i32, i32, ptr, ptr }
%struct.pmix_data_array = type { i16, i64, ptr }

@pmix_bfrops_base_framework = external global %struct.pmix_mca_base_framework_t, align 8
@pmix_output_info = external global [0 x %struct.pmix_output_desc_t], align 8
@.str.28 = private unnamed_addr constant [34 x i8] c"pmix_bfrop_unpack: %d data arrays\00", align 1

; Function Attrs: inlinehint nounwind uwtable
define internal ptr @pmix_pointer_array_get_item(ptr noundef %0, i32 noundef %1) #3 {
  %3 = alloca ptr, align 8
  %4 = alloca ptr, align 8
  %5 = alloca i32, align 4
  %6 = alloca ptr, align 8
  %7 = alloca i32, align 4
  store ptr %0, ptr %4, align 8, !tbaa !3
  store i32 %1, ptr %5, align 4, !tbaa !13
  call void @llvm.lifetime.start.p0(i64 8, ptr %6) #11
  %8 = load i32, ptr %5, align 4, !tbaa !13
  %9 = icmp sgt i32 0, %8
  br i1 %9, label %16, label %10

10:                                               ; preds = %2
  %11 = load ptr, ptr %4, align 8, !tbaa !3
  %12 = getelementptr inbounds nuw %struct.pmix_pointer_array_t, ptr %11, i32 0, i32 3
  %13 = load i32, ptr %12, align 8, !tbaa !33
  %14 = load i32, ptr %5, align 4, !tbaa !13
  %15 = icmp sle i32 %13, %14
  br label %16

16:                                               ; preds = %10, %2
  %17 = phi i1 [ true, %2 ], [ %15, %10 ]
  %18 = xor i1 %17, true
  %19 = xor i1 %18, true
  %20 = zext i1 %19 to i32
  %21 = sext i32 %20 to i64
  %22 = call i64 @llvm.expect.i64(i64 %21, i64 0)
  %23 = icmp ne i64 %22, 0
  br i1 %23, label %24, label %25

24:                                               ; preds = %16
  store ptr null, ptr %3, align 8
  store i32 1, ptr %7, align 4
  br label %34

25:                                               ; preds = %16
  %26 = load ptr, ptr %4, align 8, !tbaa !3
  %27 = getelementptr inbounds nuw %struct.pmix_pointer_array_t, ptr %26, i32 0, i32 7
  %28 = load ptr, ptr %27, align 8, !tbaa !36
  %29 = load i32, ptr %5, align 4, !tbaa !13
  %30 = sext i32 %29 to i64
  %31 = getelementptr inbounds ptr, ptr %28, i64 %30
  %32 = load ptr, ptr %31, align 8, !tbaa !8
  store ptr %32, ptr %6, align 8, !tbaa !8
  %33 = load ptr, ptr %6, align 8, !tbaa !8
  store ptr %33, ptr %3, align 8
  store i32 1, ptr %7, align 4
  br label %34

34:                                               ; preds = %25, %24
  call void @llvm.lifetime.end.p0(i64 8, ptr %6) #11
  %35 = load ptr, ptr %3, align 8
  ret ptr %35
}

; Function Attrs: nounwind uwtable
define i32 @pmix_bfrops_base_unpack_darray(ptr noundef %0, ptr noundef %1, ptr noundef %2, ptr noundef %3, i16 noundef zeroext %4) #0 {
  %6 = alloca i32, align 4
  %7 = alloca ptr, align 8
  %8 = alloca ptr, align 8
  %9 = alloca ptr, align 8
  %10 = alloca ptr, align 8
  %11 = alloca i16, align 2
  %12 = alloca ptr, align 8
  %13 = alloca i32, align 4
  %14 = alloca i32, align 4
  %15 = alloca i32, align 4
  %16 = alloca i32, align 4
  %17 = alloca i16, align 2
  %18 = alloca i64, align 8
  %19 = alloca i32, align 4
  %20 = alloca ptr, align 8
  %21 = alloca ptr, align 8
  store ptr %0, ptr %7, align 8, !tbaa !3
  store ptr %1, ptr %8, align 8, !tbaa !8
  store ptr %2, ptr %9, align 8, !tbaa !8
  store ptr %3, ptr %10, align 8, !tbaa !9
  store i16 %4, ptr %11, align 2, !tbaa !11
  call void @llvm.lifetime.start.p0(i64 8, ptr %12) #11
  call void @llvm.lifetime.start.p0(i64 4, ptr %13) #11
  call void @llvm.lifetime.start.p0(i64 4, ptr %14) #11
  call void @llvm.lifetime.start.p0(i64 4, ptr %15) #11
  call void @llvm.lifetime.start.p0(i64 4, ptr %16) #11
  call void @llvm.lifetime.start.p0(i64 2, ptr %17) #11
  call void @llvm.lifetime.start.p0(i64 8, ptr %18) #11
  %22 = load i32, ptr getelementptr inbounds nuw (%struct.pmix_mca_base_framework_t, ptr @pmix_bfrops_base_framework, i32 0, i32 11), align 4, !tbaa !15
  %23 = icmp sge i32 %22, 0
  br i1 %23, label %24, label %38

24:                                               ; preds = %5
  %25 = load i32, ptr getelementptr inbounds nuw (%struct.pmix_mca_base_framework_t, ptr @pmix_bfrops_base_framework, i32 0, i32 11), align 4, !tbaa !15
  %26 = icmp slt i32 %25, 64
  br i1 %26, label %27, label %38

27:                                               ; preds = %24
  %28 = load i32, ptr getelementptr inbounds nuw (%struct.pmix_mca_base_framework_t, ptr @pmix_bfrops_base_framework, i32 0, i32 11), align 4, !tbaa !15
  %29 = sext i32 %28 to i64
  %30 = getelementptr inbounds [0 x %struct.pmix_output_desc_t], ptr @pmix_output_info, i64 0, i64 %29
  %31 = getelementptr inbounds nuw %struct.pmix_output_desc_t, ptr %30, i32 0, i32 2
  %32 = load i32, ptr %31, align 4, !tbaa !26
  %33 = icmp sge i32 %32, 20
  br i1 %33, label %34, label %38

34:                                               ; preds = %27
  %35 = load i32, ptr getelementptr inbounds nuw (%struct.pmix_mca_base_framework_t, ptr @pmix_bfrops_base_framework, i32 0, i32 11), align 4, !tbaa !15
  %36 = load ptr, ptr %10, align 8, !tbaa !9
  %37 = load i32, ptr %36, align 4, !tbaa !13
  call void (i32, ptr, ...) @pmix_output(i32 noundef %35, ptr noundef @.str.28, i32 noundef %37)
  br label %38

38:                                               ; preds = %34, %27, %24, %5
  %39 = load ptr, ptr %9, align 8, !tbaa !8
  store ptr %39, ptr %12, align 8, !tbaa !160
  %40 = load ptr, ptr %10, align 8, !tbaa !9
  %41 = load i32, ptr %40, align 4, !tbaa !13
  store i32 %41, ptr %14, align 4, !tbaa !13
  store i32 0, ptr %13, align 4, !tbaa !13
  br label %42

42:                                               ; preds = %166, %38
  %43 = load i32, ptr %13, align 4, !tbaa !13
  %44 = load i32, ptr %14, align 4, !tbaa !13
  %45 = icmp slt i32 %43, %44
  br i1 %45, label %46, label %169

46:                                               ; preds = %42
  %47 = load ptr, ptr %12, align 8, !tbaa !160
  %48 = load i32, ptr %13, align 4, !tbaa !13
  %49 = sext i32 %48 to i64
  %50 = getelementptr inbounds %struct.pmix_data_array, ptr %47, i64 %49
  call void @llvm.memset.p0.i64(ptr align 8 %50, i8 0, i64 24, i1 false)
  store i32 1, ptr %15, align 4, !tbaa !13
  %51 = load ptr, ptr %7, align 8, !tbaa !3
  %52 = load ptr, ptr %8, align 8, !tbaa !8
  %53 = load ptr, ptr %12, align 8, !tbaa !160
  %54 = load i32, ptr %13, align 4, !tbaa !13
  %55 = sext i32 %54 to i64
  %56 = getelementptr inbounds %struct.pmix_data_array, ptr %53, i64 %55
  %57 = getelementptr inbounds nuw %struct.pmix_data_array, ptr %56, i32 0, i32 0
  %58 = call i32 @pmix_bfrop_get_data_type(ptr noundef %51, ptr noundef %52, ptr noundef %57)
  store i32 %58, ptr %16, align 4, !tbaa !13
  %59 = icmp ne i32 0, %58
  br i1 %59, label %60, label %62

60:                                               ; preds = %46
  %61 = load i32, ptr %16, align 4, !tbaa !13
  store i32 %61, ptr %6, align 4
  store i32 1, ptr %19, align 4
  br label %170

62:                                               ; preds = %46
  store i32 1, ptr %15, align 4, !tbaa !13
  br label %63

63:                                               ; preds = %62
  call void @llvm.lifetime.start.p0(i64 8, ptr %20) #11
  %64 = load ptr, ptr %7, align 8, !tbaa !3
  %65 = call ptr @pmix_pointer_array_get_item(ptr noundef %64, i32 noundef 4)
  store ptr %65, ptr %20, align 8, !tbaa !8
  %66 = load ptr, ptr %20, align 8, !tbaa !8
  %67 = icmp eq ptr null, %66
  br i1 %67, label %68, label %69

68:                                               ; preds = %63
  store i32 -16, ptr %16, align 4, !tbaa !13
  br label %81

69:                                               ; preds = %63
  %70 = load ptr, ptr %20, align 8, !tbaa !8
  %71 = getelementptr inbounds nuw %struct.pmix_bfrop_type_info_t, ptr %70, i32 0, i32 4
  %72 = load ptr, ptr %71, align 8, !tbaa !31
  %73 = load ptr, ptr %7, align 8, !tbaa !3
  %74 = load ptr, ptr %8, align 8, !tbaa !8
  %75 = load ptr, ptr %12, align 8, !tbaa !160
  %76 = load i32, ptr %13, align 4, !tbaa !13
  %77 = sext i32 %76 to i64
  %78 = getelementptr inbounds %struct.pmix_data_array, ptr %75, i64 %77
  %79 = getelementptr inbounds nuw %struct.pmix_data_array, ptr %78, i32 0, i32 1
  %80 = call i32 %72(ptr noundef %73, ptr noundef %74, ptr noundef %79, ptr noundef %15, i16 noundef zeroext 4)
  store i32 %80, ptr %16, align 4, !tbaa !13
  br label %81

81:                                               ; preds = %69, %68
  call void @llvm.lifetime.end.p0(i64 8, ptr %20) #11
  br label %82

82:                                               ; preds = %81
  br label %83

83:                                               ; preds = %82
  %84 = load i32, ptr %16, align 4, !tbaa !13
  %85 = icmp ne i32 0, %84
  br i1 %85, label %86, label %88

86:                                               ; preds = %83
  %87 = load i32, ptr %16, align 4, !tbaa !13
  store i32 %87, ptr %6, align 4
  store i32 1, ptr %19, align 4
  br label %170

88:                                               ; preds = %83
  %89 = load ptr, ptr %12, align 8, !tbaa !160
  %90 = load i32, ptr %13, align 4, !tbaa !13
  %91 = sext i32 %90 to i64
  %92 = getelementptr inbounds %struct.pmix_data_array, ptr %89, i64 %91
  %93 = getelementptr inbounds nuw %struct.pmix_data_array, ptr %92, i32 0, i32 1
  %94 = load i64, ptr %93, align 8, !tbaa !162
  %95 = icmp eq i64 0, %94
  br i1 %95, label %105, label %96

96:                                               ; preds = %88
  %97 = load ptr, ptr %12, align 8, !tbaa !160
  %98 = load i32, ptr %13, align 4, !tbaa !13
  %99 = sext i32 %98 to i64
  %100 = getelementptr inbounds %struct.pmix_data_array, ptr %97, i64 %99
  %101 = getelementptr inbounds nuw %struct.pmix_data_array, ptr %100, i32 0, i32 0
  %102 = load i16, ptr %101, align 8, !tbaa !164
  %103 = zext i16 %102 to i32
  %104 = icmp eq i32 0, %103
  br i1 %104, label %105, label %106

105:                                              ; preds = %96, %88
  br label %166

106:                                              ; preds = %96
  %107 = load ptr, ptr %12, align 8, !tbaa !160
  %108 = load i32, ptr %13, align 4, !tbaa !13
  %109 = sext i32 %108 to i64
  %110 = getelementptr inbounds %struct.pmix_data_array, ptr %107, i64 %109
  %111 = getelementptr inbounds nuw %struct.pmix_data_array, ptr %110, i32 0, i32 1
  %112 = load i64, ptr %111, align 8, !tbaa !162
  store i64 %112, ptr %18, align 8, !tbaa !54
  %113 = load ptr, ptr %12, align 8, !tbaa !160
  %114 = load i32, ptr %13, align 4, !tbaa !13
  %115 = sext i32 %114 to i64
  %116 = getelementptr inbounds %struct.pmix_data_array, ptr %113, i64 %115
  %117 = getelementptr inbounds nuw %struct.pmix_data_array, ptr %116, i32 0, i32 0
  %118 = load i16, ptr %117, align 8, !tbaa !164
  store i16 %118, ptr %17, align 2, !tbaa !11
  %119 = load ptr, ptr %12, align 8, !tbaa !160
  %120 = load i32, ptr %13, align 4, !tbaa !13
  %121 = sext i32 %120 to i64
  %122 = getelementptr inbounds %struct.pmix_data_array, ptr %119, i64 %121
  %123 = load i64, ptr %18, align 8, !tbaa !54
  %124 = load i16, ptr %17, align 2, !tbaa !11
  call void @PMIx_Data_array_construct(ptr noundef %122, i64 noundef %123, i16 noundef zeroext %124)
  %125 = load ptr, ptr %12, align 8, !tbaa !160
  %126 = load i32, ptr %13, align 4, !tbaa !13
  %127 = sext i32 %126 to i64
  %128 = getelementptr inbounds %struct.pmix_data_array, ptr %125, i64 %127
  %129 = getelementptr inbounds nuw %struct.pmix_data_array, ptr %128, i32 0, i32 2
  %130 = load ptr, ptr %129, align 8, !tbaa !165
  %131 = icmp eq ptr null, %130
  br i1 %131, label %132, label %133

132:                                              ; preds = %106
  store i32 -32, ptr %6, align 4
  store i32 1, ptr %19, align 4
  br label %170

133:                                              ; preds = %106
  %134 = load i64, ptr %18, align 8, !tbaa !54
  %135 = trunc i64 %134 to i32
  store i32 %135, ptr %15, align 4, !tbaa !13
  br label %136

136:                                              ; preds = %133
  call void @llvm.lifetime.start.p0(i64 8, ptr %21) #11
  %137 = load ptr, ptr %7, align 8, !tbaa !3
  %138 = load i16, ptr %17, align 2, !tbaa !11
  %139 = zext i16 %138 to i32
  %140 = call ptr @pmix_pointer_array_get_item(ptr noundef %137, i32 noundef %139)
  store ptr %140, ptr %21, align 8, !tbaa !8
  %141 = load ptr, ptr %21, align 8, !tbaa !8
  %142 = icmp eq ptr null, %141
  br i1 %142, label %143, label %144

143:                                              ; preds = %136
  store i32 -16, ptr %16, align 4, !tbaa !13
  br label %158

144:                                              ; preds = %136
  %145 = load ptr, ptr %21, align 8, !tbaa !8
  %146 = getelementptr inbounds nuw %struct.pmix_bfrop_type_info_t, ptr %145, i32 0, i32 4
  %147 = load ptr, ptr %146, align 8, !tbaa !31
  %148 = load ptr, ptr %7, align 8, !tbaa !3
  %149 = load ptr, ptr %8, align 8, !tbaa !8
  %150 = load ptr, ptr %12, align 8, !tbaa !160
  %151 = load i32, ptr %13, align 4, !tbaa !13
  %152 = sext i32 %151 to i64
  %153 = getelementptr inbounds %struct.pmix_data_array, ptr %150, i64 %152
  %154 = getelementptr inbounds nuw %struct.pmix_data_array, ptr %153, i32 0, i32 2
  %155 = load ptr, ptr %154, align 8, !tbaa !165
  %156 = load i16, ptr %17, align 2, !tbaa !11
  %157 = call i32 %147(ptr noundef %148, ptr noundef %149, ptr noundef %155, ptr noundef %15, i16 noundef zeroext %156)
  store i32 %157, ptr %16, align 4, !tbaa !13
  br label %158

158:                                              ; preds = %144, %143
  call void @llvm.lifetime.end.p0(i64 8, ptr %21) #11
  br label %159

159:                                              ; preds = %158
  br label %160

160:                                              ; preds = %159
  %161 = load i32, ptr %16, align 4, !tbaa !13
  %162 = icmp ne i32 0, %161
  br i1 %162, label %163, label %165

163:                                              ; preds = %160
  %164 = load i32, ptr %16, align 4, !tbaa !13
  store i32 %164, ptr %6, align 4
  store i32 1, ptr %19, align 4
  br label %170

165:                                              ; preds = %160
  br label %166

166:                                              ; preds = %165, %105
  %167 = load i32, ptr %13, align 4, !tbaa !13
  %168 = add nsw i32 %167, 1
  store i32 %168, ptr %13, align 4, !tbaa !13
  br label %42, !llvm.loop !166

169:                                              ; preds = %42
  store i32 0, ptr %6, align 4
  store i32 1, ptr %19, align 4
  br label %170

170:                                              ; preds = %169, %163, %132, %86, %60
  call void @llvm.lifetime.end.p0(i64 8, ptr %18) #11
  call void @llvm.lifetime.end.p0(i64 2, ptr %17) #11
  call void @llvm.lifetime.end.p0(i64 4, ptr %16) #11
  call void @llvm.lifetime.end.p0(i64 4, ptr %15) #11
  call void @llvm.lifetime.end.p0(i64 4, ptr %14) #11
  call void @llvm.lifetime.end.p0(i64 4, ptr %13) #11
  call void @llvm.lifetime.end.p0(i64 8, ptr %12) #11
  %171 = load i32, ptr %6, align 4
  ret i32 %171
}