; Function Attrs: nounwind uwtable
define i32 @pmix_bfrops_base_unpack_darray(ptr noundef %0, ptr noundef %1, ptr noundef %2, ptr noundef readonly captures(none) %3, i16 noundef zeroext %4) local_unnamed_addr #0 {
  %6 = alloca i32, align 4
  call void @llvm.lifetime.start.p0(i64 4, ptr nonnull %6) #10
  %7 = load i32, ptr getelementptr inbounds nuw (i8, ptr @pmix_bfrops_base_framework, i64 76), align 4, !tbaa !7
  %or.cond = icmp ult i32 %7, 64
  br i1 %or.cond, label %8, label %15

8:                                                ; preds = %5
  %9 = zext nneg i32 %7 to i64
  %10 = getelementptr inbounds nuw [0 x %struct.pmix_output_desc_t], ptr @pmix_output_info, i64 0, i64 %9, i32 2
  %11 = load i32, ptr %10, align 4, !tbaa !19
  %12 = icmp sgt i32 %11, 19
  br i1 %12, label %13, label %15

13:                                               ; preds = %8
  %14 = load i32, ptr %3, align 4, !tbaa !3
  tail call void (i32, ptr, ...) @pmix_output(i32 noundef %7, ptr noundef nonnull @.str.28, i32 noundef %14) #10
  br label %15

15:                                               ; preds = %13, %8, %5
  %16 = load i32, ptr %3, align 4, !tbaa !3
  %17 = getelementptr inbounds nuw i8, ptr %0, i64 152
  %18 = icmp sgt i32 %16, 0
  br i1 %18, label %.lr.ph, label %.thread

.lr.ph:                                           ; preds = %15
  %19 = getelementptr inbounds nuw i8, ptr %0, i64 128
  %wide.trip.count = zext nneg i32 %16 to i64
  br label %20

20:                                               ; preds = %.lr.ph, %57
  %indvars.iv = phi i64 [ 0, %.lr.ph ], [ %indvars.iv.next, %57 ]
  %21 = getelementptr inbounds nuw %struct.pmix_data_array, ptr %2, i64 %indvars.iv
  call void @llvm.memset.p0.i64(ptr noundef nonnull align 8 dereferenceable(24) %21, i8 0, i64 24, i1 false)
  store i32 1, ptr %6, align 4, !tbaa !3
  %22 = call i32 @pmix_bfrop_get_data_type(ptr noundef %0, ptr noundef %1, ptr noundef nonnull %21) #10
  %.not = icmp eq i32 %22, 0
  br i1 %.not, label %23, label %.thread

23:                                               ; preds = %20
  store i32 1, ptr %6, align 4, !tbaa !3
  %24 = load i32, ptr %19, align 8, !tbaa !26
  %.not.i = icmp sgt i32 %24, 4
  br i1 %.not.i, label %pmix_pointer_array_get_item.exit, label %.thread, !prof !29

pmix_pointer_array_get_item.exit:                 ; preds = %23
  %25 = load ptr, ptr %17, align 8, !tbaa !30
  %26 = getelementptr inbounds nuw i8, ptr %25, i64 32
  %27 = load ptr, ptr %26, align 8, !tbaa !31
  %28 = icmp eq ptr %27, null
  br i1 %28, label %.thread, label %29

29:                                               ; preds = %pmix_pointer_array_get_item.exit
  %30 = getelementptr inbounds nuw i8, ptr %27, i64 144
  %31 = load ptr, ptr %30, align 8, !tbaa !32
  %32 = getelementptr inbounds nuw i8, ptr %21, i64 8
  %33 = call i32 %31(ptr noundef nonnull %0, ptr noundef %1, ptr noundef nonnull %32, ptr noundef nonnull %6, i16 noundef zeroext 4) #10
  %.not57 = icmp eq i32 %33, 0
  br i1 %.not57, label %34, label %.thread

34:                                               ; preds = %29
  %35 = load i64, ptr %32, align 8, !tbaa !109
  %36 = icmp eq i64 %35, 0
  br i1 %36, label %57, label %37

37:                                               ; preds = %34
  %38 = load i16, ptr %21, align 8, !tbaa !111
  %39 = zext i16 %38 to i32
  %40 = icmp eq i16 %38, 0
  br i1 %40, label %57, label %41

41:                                               ; preds = %37
  call void @PMIx_Data_array_construct(ptr noundef nonnull %21, i64 noundef %35, i16 noundef zeroext %38) #10
  %42 = getelementptr inbounds nuw i8, ptr %21, i64 16
  %43 = load ptr, ptr %42, align 8, !tbaa !112
  %44 = icmp eq ptr %43, null
  br i1 %44, label %.thread, label %45

45:                                               ; preds = %41
  %46 = trunc i64 %35 to i32
  store i32 %46, ptr %6, align 4, !tbaa !3
  %47 = load i32, ptr %19, align 8, !tbaa !26
  %.not.i59 = icmp sgt i32 %47, %39
  br i1 %.not.i59, label %pmix_pointer_array_get_item.exit61, label %.thread, !prof !29

pmix_pointer_array_get_item.exit61:               ; preds = %45
  %48 = load ptr, ptr %17, align 8, !tbaa !30
  %49 = zext i16 %38 to i64
  %50 = getelementptr inbounds nuw ptr, ptr %48, i64 %49
  %51 = load ptr, ptr %50, align 8, !tbaa !31
  %52 = icmp eq ptr %51, null
  br i1 %52, label %.thread, label %53

53:                                               ; preds = %pmix_pointer_array_get_item.exit61
  %54 = getelementptr inbounds nuw i8, ptr %51, i64 144
  %55 = load ptr, ptr %54, align 8, !tbaa !32
  %56 = call i32 %55(ptr noundef nonnull %0, ptr noundef %1, ptr noundef nonnull %43, ptr noundef nonnull %6, i16 noundef zeroext %38) #10
  %.not58 = icmp eq i32 %56, 0
  br i1 %.not58, label %57, label %.thread

57:                                               ; preds = %53, %34, %37
  %indvars.iv.next = add nuw nsw i64 %indvars.iv, 1
  %exitcond.not = icmp eq i64 %indvars.iv.next, %wide.trip.count
  br i1 %exitcond.not, label %.thread, label %20, !llvm.loop !113

.thread:                                          ; preds = %20, %29, %41, %53, %57, %pmix_pointer_array_get_item.exit, %23, %pmix_pointer_array_get_item.exit61, %45, %15
  %.0 = phi i32 [ 0, %15 ], [ -16, %45 ], [ -16, %pmix_pointer_array_get_item.exit61 ], [ -16, %23 ], [ -16, %pmix_pointer_array_get_item.exit ], [ 0, %57 ], [ %56, %53 ], [ -32, %41 ], [ %33, %29 ], [ %22, %20 ]
  call void @llvm.lifetime.end.p0(i64 4, ptr nonnull %6) #10
  ret i32 %.0
}